; Function Attrs: nounwind uwtable
define ptr @initialize_Lake_Util_Cli(i8 noundef zeroext %0, ptr noundef readnone captures(none) %1) local_unnamed_addr #0 {
  %.b4 = load i1, ptr @_G_initialized, align 1
  br i1 %.b4, label %3, label %7

3:                                                ; preds = %2
  tail call void @lean_inc_heartbeat() #3
  %4 = tail call noalias ptr @mi_malloc_small(i64 noundef 24) #3
  %5 = icmp eq ptr %4, null
  br i1 %5, label %6, label %.sink.split

6:                                                ; preds = %3
  tail call void @lean_internal_panic_out_of_memory() #4
  unreachable

7:                                                ; preds = %2
  store i1 true, ptr @_G_initialized, align 1
  %8 = tail call ptr @initialize_Init_Data_Array_Basic(i8 noundef zeroext %0, ptr noundef nonnull inttoptr (i64 1 to ptr)) #3
  %9 = getelementptr i8, ptr %8, i64 4
  %.val = load i32, ptr %9, align 4
  %.mask.i = and i32 %.val, -16777216
  %10 = icmp eq i32 %.mask.i, 16777216
  br i1 %10, label %52, label %11

11:                                               ; preds = %7
  %12 = load i32, ptr %8, align 4, !tbaa !4
  %13 = icmp sgt i32 %12, 1
  br i1 %13, label %14, label %16, !prof !9

14:                                               ; preds = %11
  %15 = add nsw i32 %12, -1
  store i32 %15, ptr %8, align 4, !tbaa !4
  br label %lean_dec_ref.exit

16:                                               ; preds = %11
  %.not.i = icmp eq i32 %12, 0
  br i1 %.not.i, label %lean_dec_ref.exit, label %17

17:                                               ; preds = %16
  tail call void @lean_dec_ref_cold(ptr noundef nonnull %8) #3
  br label %lean_dec_ref.exit

lean_dec_ref.exit:                                ; preds = %14, %16, %17
  tail call void @lean_inc_heartbeat() #3
  %18 = tail call noalias ptr @mi_malloc_small(i64 noundef 24) #3
  %19 = icmp eq ptr %18, null
  br i1 %19, label %20, label %_init_l_Lake_ArgsT_run_x27___rarg___closed__1.exit

20:                                               ; preds = %lean_dec_ref.exit
  tail call void @lean_internal_panic_out_of_memory() #4
  unreachable

_init_l_Lake_ArgsT_run_x27___rarg___closed__1.exit: ; preds = %lean_dec_ref.exit
  %21 = getelementptr inbounds nuw i8, ptr %18, i64 4
  store i32 1, ptr %18, align 4, !tbaa !4
  store i32 -184549352, ptr %21, align 4
  %22 = getelementptr inbounds nuw i8, ptr %18, i64 8
  store ptr @l_Lake_ArgsT_run_x27___rarg___lambda__1___boxed, ptr %22, align 8, !tbaa !11
  %23 = getelementptr inbounds nuw i8, ptr %18, i64 16
  store i16 1, ptr %23, align 8, !tbaa !13
  %24 = getelementptr inbounds nuw i8, ptr %18, i64 18
  store i16 0, ptr %24, align 2, !tbaa !13
  store ptr %18, ptr @l_Lake_ArgsT_run_x27___rarg___closed__1, align 8, !tbaa !11
  tail call void @lean_mark_persistent(ptr noundef nonnull %18) #3
  tail call void @lean_inc_heartbeat() #3
  %25 = tail call noalias ptr @mi_malloc_small(i64 noundef 24) #3
  %26 = icmp eq ptr %25, null
  br i1 %26, label %27, label %_init_l_Lake_takeArg_x3f___rarg___lambda__1___closed__1.exit

27:                                               ; preds = %_init_l_Lake_ArgsT_run_x27___rarg___closed__1.exit
  tail call void @lean_internal_panic_out_of_memory() #4
  unreachable

_init_l_Lake_takeArg_x3f___rarg___lambda__1___closed__1.exit: ; preds = %_init_l_Lake_ArgsT_run_x27___rarg___closed__1.exit
  %28 = getelementptr inbounds nuw i8, ptr %25, i64 4
  store i32 1, ptr %25, align 4, !tbaa !4
  store i32 131096, ptr %28, align 4
  %29 = getelementptr inbounds nuw i8, ptr %25, i64 8
  store ptr inttoptr (i64 1 to ptr), ptr %29, align 8, !tbaa !11
  %30 = getelementptr inbounds nuw i8, ptr %25, i64 16
  store ptr inttoptr (i64 1 to ptr), ptr %30, align 8, !tbaa !11
  store ptr %25, ptr @l_Lake_takeArg_x3f___rarg___lambda__1___closed__1, align 8, !tbaa !11
  tail call void @lean_mark_persistent(ptr noundef nonnull %25) #3
  tail call void @lean_inc_heartbeat() #3
  %31 = tail call noalias ptr @mi_malloc_small(i64 noundef 24) #3
  %32 = icmp eq ptr %31, null
  br i1 %32, label %33, label %_init_l_Lake_takeArg_x3f___rarg___closed__1.exit

33:                                               ; preds = %_init_l_Lake_takeArg_x3f___rarg___lambda__1___closed__1.exit
  tail call void @lean_internal_panic_out_of_memory() #4
  unreachable

_init_l_Lake_takeArg_x3f___rarg___closed__1.exit: ; preds = %_init_l_Lake_takeArg_x3f___rarg___lambda__1___closed__1.exit
  %34 = getelementptr inbounds nuw i8, ptr %31, i64 4
  store i32 1, ptr %31, align 4, !tbaa !4
  store i32 -184549352, ptr %34, align 4
  %35 = getelementptr inbounds nuw i8, ptr %31, i64 8
  store ptr @l_Lake_takeArg_x3f___rarg___lambda__1, ptr %35, align 8, !tbaa !11
  %36 = getelementptr inbounds nuw i8, ptr %31, i64 16
  store i16 1, ptr %36, align 8, !tbaa !13
  %37 = getelementptr inbounds nuw i8, ptr %31, i64 18
  store i16 0, ptr %37, align 2, !tbaa !13
  store ptr %31, ptr @l_Lake_takeArg_x3f___rarg___closed__1, align 8, !tbaa !11
  tail call void @lean_mark_persistent(ptr noundef nonnull %31) #3
  tail call void @lean_inc_heartbeat() #3
  %38 = tail call noalias ptr @mi_malloc_small(i64 noundef 24) #3
  %39 = icmp eq ptr %38, null
  br i1 %39, label %40, label %_init_l_Lake_takeArgs___rarg___closed__1.exit

40:                                               ; preds = %_init_l_Lake_takeArg_x3f___rarg___closed__1.exit
  tail call void @lean_internal_panic_out_of_memory() #4
  unreachable

_init_l_Lake_takeArgs___rarg___closed__1.exit:    ; preds = %_init_l_Lake_takeArg_x3f___rarg___closed__1.exit
  %41 = getelementptr inbounds nuw i8, ptr %38, i64 4
  store i32 1, ptr %38, align 4, !tbaa !4
  store i32 -184549352, ptr %41, align 4
  %42 = getelementptr inbounds nuw i8, ptr %38, i64 8
  store ptr @l_Lake_takeArgs___rarg___lambda__1, ptr %42, align 8, !tbaa !11
  %43 = getelementptr inbounds nuw i8, ptr %38, i64 16
  store i16 1, ptr %43, align 8, !tbaa !13
  %44 = getelementptr inbounds nuw i8, ptr %38, i64 18
  store i16 0, ptr %44, align 2, !tbaa !13
  store ptr %38, ptr @l_Lake_takeArgs___rarg___closed__1, align 8, !tbaa !11
  tail call void @lean_mark_persistent(ptr noundef nonnull %38) #3
  %45 = tail call ptr @lean_array_mk(ptr noundef nonnull inttoptr (i64 1 to ptr)) #3
  store ptr %45, ptr @l_Lake_processOptions___rarg___closed__1, align 8, !tbaa !11
  tail call void @lean_mark_persistent(ptr noundef %45) #3
  tail call void @lean_inc_heartbeat() #3
  %46 = tail call noalias ptr @mi_malloc_small(i64 noundef 24) #3
  %47 = icmp eq ptr %46, null
  br i1 %47, label %48, label %.sink.split

48:                                               ; preds = %_init_l_Lake_takeArgs___rarg___closed__1.exit
  tail call void @lean_internal_panic_out_of_memory() #4
  unreachable

.sink.split:                                      ; preds = %_init_l_Lake_takeArgs___rarg___closed__1.exit, %3
  %.sink9 = phi ptr [ %4, %3 ], [ %46, %_init_l_Lake_takeArgs___rarg___closed__1.exit ]
  %49 = getelementptr inbounds nuw i8, ptr %.sink9, i64 4
  store i32 1, ptr %.sink9, align 4, !tbaa !4
  store i32 131096, ptr %49, align 4
  %50 = getelementptr inbounds nuw i8, ptr %.sink9, i64 8
  store ptr inttoptr (i64 1 to ptr), ptr %50, align 8, !tbaa !11
  %51 = getelementptr inbounds nuw i8, ptr %.sink9, i64 16
  store ptr inttoptr (i64 1 to ptr), ptr %51, align 8, !tbaa !11
  br label %52

52:                                               ; preds = %.sink.split, %7
  %.0 = phi ptr [ %8, %7 ], [ %.sink9, %.sink.split ]
  ret ptr %.0
}